
./rvv-tools/../bin/ubmark-cmplx-mult:	file format elf32-littleriscv

Disassembly of section .text:

00010074 <main>:
   10074: 13 01 01 cc  	addi	sp, sp, -832
   10078: 23 2e 11 32  	sw	ra, 828(sp)
   1007c: 23 2c 81 32  	sw	s0, 824(sp)
   10080: 23 2a 91 32  	sw	s1, 820(sp)
   10084: 23 28 21 33  	sw	s2, 816(sp)
   10088: 23 26 31 33  	sw	s3, 812(sp)
   1008c: 23 24 41 33  	sw	s4, 808(sp)
   10090: 23 22 51 33  	sw	s5, 804(sp)
   10094: 23 20 61 33  	sw	s6, 800(sp)
   10098: 13 05 01 00  	mv	a0, sp
   1009c: 13 06 00 32  	li	a2, 800
   100a0: 13 04 01 00  	mv	s0, sp
   100a4: 93 05 00 00  	li	a1, 0
   100a8: ef 00 40 2e  	jal	0x1038c <memset>
   100ac: 13 05 00 00  	li	a0, 0
   100b0: 13 00 10 00  	li	zero, 1
   100b4: 73 10 a0 00  	csrw	vxrm, zero
   100b8: 13 00 00 00  	nop
   100bc: 13 00 00 00  	nop
   100c0: 13 00 00 00  	nop
   100c4: 13 00 00 00  	nop
   100c8: 13 00 00 00  	nop
   100cc: b7 15 01 00  	lui	a1, 17
   100d0: 93 85 05 00  	mv	a1, a1
   100d4: 13 06 80 00  	li	a2, 8
   100d8: b7 16 01 00  	lui	a3, 17
   100dc: 93 86 06 32  	addi	a3, a3, 800
   100e0: 13 07 00 30  	li	a4, 768
   100e4: b3 07 b5 00  	add	a5, a0, a1
   100e8: 57 70 04 c5  	vsetivli	zero, 8, e32, m1, ta, mu
   100ec: 07 e4 c7 0a  	vlse32.v	v8, (a5), a2
   100f0: b3 04 d5 00  	add	s1, a0, a3
   100f4: 87 e4 c4 0a  	vlse32.v	v9, (s1), a2
   100f8: 93 87 47 00  	addi	a5, a5, 4
   100fc: 07 e5 c7 0a  	vlse32.v	v10, (a5), a2
   10100: 93 87 44 00  	addi	a5, s1, 4
   10104: 87 e5 c7 0a  	vlse32.v	v11, (a5), a2
   10108: 57 26 94 96  	vmul.vv	v12, v9, v8
   1010c: 57 a6 a5 be  	vnmsac.vv	v12, v11, v10
   10110: b3 07 a4 00  	add	a5, s0, a0
   10114: 27 e6 c7 0a  	vsse32.v	v12, (a5), a2
   10118: 57 24 b4 96  	vmul.vv	v8, v11, v8
   1011c: 57 24 95 b6  	vmacc.vv	v8, v10, v9
   10120: 93 87 47 00  	addi	a5, a5, 4
   10124: 13 05 05 04  	addi	a0, a0, 64
   10128: 27 e4 c7 0a  	vsse32.v	v8, (a5), a2
   1012c: e3 1c e5 fa  	bne	a0, a4, 0x100e4 <main+0x70>
   10130: 37 15 01 00  	lui	a0, 17
   10134: 93 0a 05 00  	mv	s5, a0
   10138: 83 a9 0a 30  	lw	s3, 768(s5)
   1013c: 37 15 01 00  	lui	a0, 17
   10140: 13 0b 05 32  	addi	s6, a0, 800
   10144: 03 29 0b 30  	lw	s2, 768(s6)
   10148: 13 05 09 00  	mv	a0, s2
   1014c: 93 85 09 00  	mv	a1, s3
   10150: ef 00 80 21  	jal	0x10368 <__mulsi3>
   10154: 83 a4 4a 30  	lw	s1, 772(s5)
   10158: 03 24 4b 30  	lw	s0, 772(s6)
   1015c: 13 0a 05 00  	mv	s4, a0
   10160: 13 05 04 00  	mv	a0, s0
   10164: 93 85 04 00  	mv	a1, s1
   10168: ef 00 00 20  	jal	0x10368 <__mulsi3>
   1016c: 33 05 aa 40  	sub	a0, s4, a0
   10170: 23 20 a1 30  	sw	a0, 768(sp)
   10174: 13 05 04 00  	mv	a0, s0
   10178: 93 85 09 00  	mv	a1, s3
   1017c: ef 00 c0 1e  	jal	0x10368 <__mulsi3>
   10180: 93 09 05 00  	mv	s3, a0
   10184: 13 85 04 00  	mv	a0, s1
   10188: 93 05 09 00  	mv	a1, s2
   1018c: ef 00 c0 1d  	jal	0x10368 <__mulsi3>
   10190: 03 aa 8a 30  	lw	s4, 776(s5)
   10194: 03 29 8b 30  	lw	s2, 776(s6)
   10198: 33 85 a9 00  	add	a0, s3, a0
   1019c: 23 22 a1 30  	sw	a0, 772(sp)
   101a0: 13 05 09 00  	mv	a0, s2
   101a4: 93 05 0a 00  	mv	a1, s4
   101a8: ef 00 00 1c  	jal	0x10368 <__mulsi3>
   101ac: 03 a4 ca 30  	lw	s0, 780(s5)
   101b0: 83 24 cb 30  	lw	s1, 780(s6)
   101b4: 93 09 05 00  	mv	s3, a0
   101b8: 13 85 04 00  	mv	a0, s1
   101bc: 93 05 04 00  	mv	a1, s0
   101c0: ef 00 80 1a  	jal	0x10368 <__mulsi3>
   101c4: 33 85 a9 40  	sub	a0, s3, a0
   101c8: 23 24 a1 30  	sw	a0, 776(sp)
   101cc: 13 85 04 00  	mv	a0, s1
   101d0: 93 05 0a 00  	mv	a1, s4
   101d4: ef 00 40 19  	jal	0x10368 <__mulsi3>
   101d8: 93 09 05 00  	mv	s3, a0
   101dc: 13 05 04 00  	mv	a0, s0
   101e0: 93 05 09 00  	mv	a1, s2
   101e4: ef 00 40 18  	jal	0x10368 <__mulsi3>
   101e8: 03 aa 0a 31  	lw	s4, 784(s5)
   101ec: 03 29 0b 31  	lw	s2, 784(s6)
   101f0: 33 85 a9 00  	add	a0, s3, a0
   101f4: 23 26 a1 30  	sw	a0, 780(sp)
   101f8: 13 05 09 00  	mv	a0, s2
   101fc: 93 05 0a 00  	mv	a1, s4
   10200: ef 00 80 16  	jal	0x10368 <__mulsi3>
   10204: 83 a4 4a 31  	lw	s1, 788(s5)
   10208: 03 24 4b 31  	lw	s0, 788(s6)
   1020c: 93 09 05 00  	mv	s3, a0
   10210: 13 05 04 00  	mv	a0, s0
   10214: 93 85 04 00  	mv	a1, s1
   10218: ef 00 00 15  	jal	0x10368 <__mulsi3>
   1021c: 33 85 a9 40  	sub	a0, s3, a0
   10220: 23 28 a1 30  	sw	a0, 784(sp)
   10224: 13 05 04 00  	mv	a0, s0
   10228: 93 05 0a 00  	mv	a1, s4
   1022c: ef 00 c0 13  	jal	0x10368 <__mulsi3>
   10230: 93 09 05 00  	mv	s3, a0
   10234: 13 85 04 00  	mv	a0, s1
   10238: 93 05 09 00  	mv	a1, s2
   1023c: ef 00 c0 12  	jal	0x10368 <__mulsi3>
   10240: 03 aa 8a 31  	lw	s4, 792(s5)
   10244: 03 29 8b 31  	lw	s2, 792(s6)
   10248: 33 85 a9 00  	add	a0, s3, a0
   1024c: 23 2a a1 30  	sw	a0, 788(sp)
   10250: 13 05 09 00  	mv	a0, s2
   10254: 93 05 0a 00  	mv	a1, s4
   10258: ef 00 00 11  	jal	0x10368 <__mulsi3>
   1025c: 03 a4 ca 31  	lw	s0, 796(s5)
   10260: 83 24 cb 31  	lw	s1, 796(s6)
   10264: 93 09 05 00  	mv	s3, a0
   10268: 13 85 04 00  	mv	a0, s1
   1026c: 93 05 04 00  	mv	a1, s0
   10270: ef 00 80 0f  	jal	0x10368 <__mulsi3>
   10274: 33 85 a9 40  	sub	a0, s3, a0
   10278: 23 2c a1 30  	sw	a0, 792(sp)
   1027c: 13 85 04 00  	mv	a0, s1
   10280: 93 05 0a 00  	mv	a1, s4
   10284: ef 00 40 0e  	jal	0x10368 <__mulsi3>
   10288: 93 04 05 00  	mv	s1, a0
   1028c: 13 05 04 00  	mv	a0, s0
   10290: 93 05 09 00  	mv	a1, s2
   10294: ef 00 40 0d  	jal	0x10368 <__mulsi3>
   10298: 93 05 00 00  	li	a1, 0
   1029c: 33 85 a4 00  	add	a0, s1, a0
   102a0: 23 2e a1 30  	sw	a0, 796(sp)
   102a4: 13 00 00 00  	nop
   102a8: 73 10 a0 00  	csrw	vxrm, zero
   102ac: 13 00 00 00  	nop
   102b0: 13 00 00 00  	nop
   102b4: 13 00 00 00  	nop
   102b8: 13 00 00 00  	nop
   102bc: 13 00 00 00  	nop
   102c0: 13 05 01 00  	mv	a0, sp
   102c4: 37 16 01 00  	lui	a2, 17
   102c8: 13 06 06 64  	addi	a2, a2, 1600
   102cc: 93 06 00 32  	li	a3, 800
   102d0: 6f 00 80 02  	j	0x102f8 <main+0x284>
   102d4: 13 00 20 00  	li	zero, 2
   102d8: 73 10 50 01  	csrw	21, zero
   102dc: 13 00 00 00  	nop
   102e0: 13 00 00 00  	nop
   102e4: 13 00 00 00  	nop
   102e8: 13 00 00 00  	nop
   102ec: 13 00 00 00  	nop
   102f0: 93 85 85 00  	addi	a1, a1, 8
   102f4: 63 86 d5 02  	beq	a1, a3, 0x10320 <main+0x2ac>
   102f8: 33 07 b5 00  	add	a4, a0, a1
   102fc: 83 27 07 00  	lw	a5, 0(a4)
   10300: b3 84 c5 00  	add	s1, a1, a2
   10304: 83 a4 04 00  	lw	s1, 0(s1)
   10308: e3 96 97 fc  	bne	a5, s1, 0x102d4 <main+0x260>
   1030c: 03 27 47 00  	lw	a4, 4(a4)
   10310: b3 07 b6 00  	add	a5, a2, a1
   10314: 83 a7 47 00  	lw	a5, 4(a5)
   10318: e3 1e f7 fa  	bne	a4, a5, 0x102d4 <main+0x260>
   1031c: 6f f0 5f fd  	j	0x102f0 <main+0x27c>
   10320: 13 00 10 00  	li	zero, 1
   10324: 73 10 50 01  	csrw	21, zero
   10328: 13 00 00 00  	nop
   1032c: 13 00 00 00  	nop
   10330: 13 00 00 00  	nop
   10334: 13 00 00 00  	nop
   10338: 13 00 00 00  	nop
   1033c: 13 05 00 00  	li	a0, 0
   10340: 83 20 c1 33  	lw	ra, 828(sp)
   10344: 03 24 81 33  	lw	s0, 824(sp)
   10348: 83 24 41 33  	lw	s1, 820(sp)
   1034c: 03 29 01 33  	lw	s2, 816(sp)
   10350: 83 29 c1 32  	lw	s3, 812(sp)
   10354: 03 2a 81 32  	lw	s4, 808(sp)
   10358: 83 2a 41 32  	lw	s5, 804(sp)
   1035c: 03 2b 01 32  	lw	s6, 800(sp)
   10360: 13 01 01 34  	addi	sp, sp, 832
   10364: 67 80 00 00  	ret

00010368 <__mulsi3>:
   10368: 13 06 05 00  	mv	a2, a0
   1036c: 13 05 00 00  	li	a0, 0
   10370: 93 f6 15 00  	andi	a3, a1, 1
   10374: 63 84 06 00  	beqz	a3, 0x1037c <__mulsi3+0x14>
   10378: 33 05 c5 00  	add	a0, a0, a2
   1037c: 93 d5 15 00  	srli	a1, a1, 1
   10380: 13 16 16 00  	slli	a2, a2, 1
   10384: e3 96 05 fe  	bnez	a1, 0x10370 <__mulsi3+0x8>
   10388: 67 80 00 00  	ret

0001038c <memset>:
   1038c: 13 08 f0 00  	li	a6, 15
   10390: 13 07 05 00  	mv	a4, a0
   10394: 63 7e c8 02  	bgeu	a6, a2, 0x103d0 <memset+0x44>
   10398: 93 77 f7 00  	andi	a5, a4, 15
   1039c: 63 90 07 0a  	bnez	a5, 0x1043c <memset+0xb0>
   103a0: 63 92 05 08  	bnez	a1, 0x10424 <memset+0x98>
   103a4: 93 76 06 ff  	andi	a3, a2, -16
   103a8: 13 76 f6 00  	andi	a2, a2, 15
   103ac: b3 86 e6 00  	add	a3, a3, a4
   103b0: 23 20 b7 00  	sw	a1, 0(a4)
   103b4: 23 22 b7 00  	sw	a1, 4(a4)
   103b8: 23 24 b7 00  	sw	a1, 8(a4)
   103bc: 23 26 b7 00  	sw	a1, 12(a4)
   103c0: 13 07 07 01  	addi	a4, a4, 16
   103c4: e3 66 d7 fe  	bltu	a4, a3, 0x103b0 <memset+0x24>
   103c8: 63 14 06 00  	bnez	a2, 0x103d0 <memset+0x44>
   103cc: 67 80 00 00  	ret
   103d0: b3 06 c8 40  	sub	a3, a6, a2
   103d4: 93 96 26 00  	slli	a3, a3, 2
   103d8: 97 02 00 00  	auipc	t0, 0
   103dc: b3 86 56 00  	add	a3, a3, t0
   103e0: 67 80 c6 00  	jr	12(a3)
   103e4: 23 07 b7 00  	sb	a1, 14(a4)
   103e8: a3 06 b7 00  	sb	a1, 13(a4)
   103ec: 23 06 b7 00  	sb	a1, 12(a4)
   103f0: a3 05 b7 00  	sb	a1, 11(a4)
   103f4: 23 05 b7 00  	sb	a1, 10(a4)
   103f8: a3 04 b7 00  	sb	a1, 9(a4)
   103fc: 23 04 b7 00  	sb	a1, 8(a4)
   10400: a3 03 b7 00  	sb	a1, 7(a4)
   10404: 23 03 b7 00  	sb	a1, 6(a4)
   10408: a3 02 b7 00  	sb	a1, 5(a4)
   1040c: 23 02 b7 00  	sb	a1, 4(a4)
   10410: a3 01 b7 00  	sb	a1, 3(a4)
   10414: 23 01 b7 00  	sb	a1, 2(a4)
   10418: a3 00 b7 00  	sb	a1, 1(a4)
   1041c: 23 00 b7 00  	sb	a1, 0(a4)
   10420: 67 80 00 00  	ret
   10424: 93 f5 f5 0f  	andi	a1, a1, 255
   10428: 93 96 85 00  	slli	a3, a1, 8
   1042c: b3 e5 d5 00  	or	a1, a1, a3
   10430: 93 96 05 01  	slli	a3, a1, 16
   10434: b3 e5 d5 00  	or	a1, a1, a3
   10438: 6f f0 df f6  	j	0x103a4 <memset+0x18>
   1043c: 93 96 27 00  	slli	a3, a5, 2
   10440: 97 02 00 00  	auipc	t0, 0
   10444: b3 86 56 00  	add	a3, a3, t0
   10448: 93 82 00 00  	mv	t0, ra
   1044c: e7 80 06 fa  	jalr	-96(a3)
   10450: 93 80 02 00  	mv	ra, t0
   10454: 93 87 07 ff  	addi	a5, a5, -16
   10458: 33 07 f7 40  	sub	a4, a4, a5
   1045c: 33 06 f6 00  	add	a2, a2, a5
   10460: e3 78 c8 f6  	bgeu	a6, a2, 0x103d0 <memset+0x44>
   10464: 6f f0 df f3  	j	0x103a0 <memset+0x14>
