
./rvv-tools/../bin/ubmark-bin-search:	file format elf32-littleriscv

Disassembly of section .text:

00010074 <main>:
   10074: 13 01 01 fd  	addi	sp, sp, -48
   10078: 23 26 11 02  	sw	ra, 44(sp)
   1007c: 13 05 41 00  	addi	a0, sp, 4
   10080: 13 06 80 02  	li	a2, 40
   10084: 93 05 00 00  	li	a1, 0
   10088: ef 00 00 32  	jal	0x103a8 <memset>
   1008c: 13 00 10 00  	li	zero, 1
   10090: 73 10 a0 00  	csrw	vxrm, zero
   10094: 13 00 00 00  	nop
   10098: 13 00 00 00  	nop
   1009c: 13 00 00 00  	nop
   100a0: 13 00 00 00  	nop
   100a4: 13 00 00 00  	nop
   100a8: 37 25 01 00  	lui	a0, 18
   100ac: 03 27 45 ff  	lw	a4, -12(a0)
   100b0: 37 25 01 00  	lui	a0, 18
   100b4: 93 05 05 fa  	addi	a1, a0, -96
   100b8: 37 15 01 00  	lui	a0, 17
   100bc: 93 06 05 00  	mv	a3, a0
   100c0: 13 05 41 00  	addi	a0, sp, 4
   100c4: 13 06 a0 00  	li	a2, 10
   100c8: ef 00 80 22  	jal	0x102f0 <bin_search_scalar>
   100cc: 13 00 00 00  	nop
   100d0: 73 10 a0 00  	csrw	vxrm, zero
   100d4: 13 00 00 00  	nop
   100d8: 13 00 00 00  	nop
   100dc: 13 00 00 00  	nop
   100e0: 13 00 00 00  	nop
   100e4: 13 00 00 00  	nop
   100e8: 83 25 41 00  	lw	a1, 4(sp)
   100ec: 37 25 01 00  	lui	a0, 18
   100f0: 03 26 85 fc  	lw	a2, -56(a0)
   100f4: 63 80 c5 02  	beq	a1, a2, 0x10114 <main+0xa0>
   100f8: 13 00 20 00  	li	zero, 2
   100fc: 73 10 50 01  	csrw	21, zero
   10100: 13 00 00 00  	nop
   10104: 13 00 00 00  	nop
   10108: 13 00 00 00  	nop
   1010c: 13 00 00 00  	nop
   10110: 13 00 00 00  	nop
   10114: 83 25 81 00  	lw	a1, 8(sp)
   10118: 13 05 85 fc  	addi	a0, a0, -56
   1011c: 03 25 45 00  	lw	a0, 4(a0)
   10120: 63 82 a5 02  	beq	a1, a0, 0x10144 <main+0xd0>
   10124: 13 05 10 00  	li	a0, 1
   10128: 13 05 20 00  	li	a0, 2
   1012c: 73 10 55 01  	csrw	21, a0
   10130: 13 00 00 00  	nop
   10134: 13 00 00 00  	nop
   10138: 13 00 00 00  	nop
   1013c: 13 00 00 00  	nop
   10140: 13 00 00 00  	nop
   10144: 83 25 c1 00  	lw	a1, 12(sp)
   10148: 37 25 01 00  	lui	a0, 18
   1014c: 13 05 85 fc  	addi	a0, a0, -56
   10150: 03 26 85 00  	lw	a2, 8(a0)
   10154: 63 82 c5 02  	beq	a1, a2, 0x10178 <main+0x104>
   10158: 93 05 20 00  	li	a1, 2
   1015c: 93 05 20 00  	li	a1, 2
   10160: 73 90 55 01  	csrw	21, a1
   10164: 13 00 00 00  	nop
   10168: 13 00 00 00  	nop
   1016c: 13 00 00 00  	nop
   10170: 13 00 00 00  	nop
   10174: 13 00 00 00  	nop
   10178: 83 25 01 01  	lw	a1, 16(sp)
   1017c: 03 25 c5 00  	lw	a0, 12(a0)
   10180: 63 82 a5 02  	beq	a1, a0, 0x101a4 <main+0x130>
   10184: 13 05 30 00  	li	a0, 3
   10188: 13 05 20 00  	li	a0, 2
   1018c: 73 10 55 01  	csrw	21, a0
   10190: 13 00 00 00  	nop
   10194: 13 00 00 00  	nop
   10198: 13 00 00 00  	nop
   1019c: 13 00 00 00  	nop
   101a0: 13 00 00 00  	nop
   101a4: 83 25 41 01  	lw	a1, 20(sp)
   101a8: 37 25 01 00  	lui	a0, 18
   101ac: 13 05 85 fc  	addi	a0, a0, -56
   101b0: 03 26 05 01  	lw	a2, 16(a0)
   101b4: 63 82 c5 02  	beq	a1, a2, 0x101d8 <main+0x164>
   101b8: 93 05 40 00  	li	a1, 4
   101bc: 93 05 20 00  	li	a1, 2
   101c0: 73 90 55 01  	csrw	21, a1
   101c4: 13 00 00 00  	nop
   101c8: 13 00 00 00  	nop
   101cc: 13 00 00 00  	nop
   101d0: 13 00 00 00  	nop
   101d4: 13 00 00 00  	nop
   101d8: 83 25 81 01  	lw	a1, 24(sp)
   101dc: 03 25 45 01  	lw	a0, 20(a0)
   101e0: 63 82 a5 02  	beq	a1, a0, 0x10204 <main+0x190>
   101e4: 13 05 50 00  	li	a0, 5
   101e8: 13 05 20 00  	li	a0, 2
   101ec: 73 10 55 01  	csrw	21, a0
   101f0: 13 00 00 00  	nop
   101f4: 13 00 00 00  	nop
   101f8: 13 00 00 00  	nop
   101fc: 13 00 00 00  	nop
   10200: 13 00 00 00  	nop
   10204: 83 25 c1 01  	lw	a1, 28(sp)
   10208: 37 25 01 00  	lui	a0, 18
   1020c: 13 05 85 fc  	addi	a0, a0, -56
   10210: 03 26 85 01  	lw	a2, 24(a0)
   10214: 63 82 c5 02  	beq	a1, a2, 0x10238 <main+0x1c4>
   10218: 93 05 60 00  	li	a1, 6
   1021c: 93 05 20 00  	li	a1, 2
   10220: 73 90 55 01  	csrw	21, a1
   10224: 13 00 00 00  	nop
   10228: 13 00 00 00  	nop
   1022c: 13 00 00 00  	nop
   10230: 13 00 00 00  	nop
   10234: 13 00 00 00  	nop
   10238: 83 25 01 02  	lw	a1, 32(sp)
   1023c: 03 25 c5 01  	lw	a0, 28(a0)
   10240: 63 82 a5 02  	beq	a1, a0, 0x10264 <main+0x1f0>
   10244: 13 05 70 00  	li	a0, 7
   10248: 13 05 20 00  	li	a0, 2
   1024c: 73 10 55 01  	csrw	21, a0
   10250: 13 00 00 00  	nop
   10254: 13 00 00 00  	nop
   10258: 13 00 00 00  	nop
   1025c: 13 00 00 00  	nop
   10260: 13 00 00 00  	nop
   10264: 83 25 41 02  	lw	a1, 36(sp)
   10268: 37 25 01 00  	lui	a0, 18
   1026c: 13 05 85 fc  	addi	a0, a0, -56
   10270: 03 26 05 02  	lw	a2, 32(a0)
   10274: 63 82 c5 02  	beq	a1, a2, 0x10298 <main+0x224>
   10278: 93 05 80 00  	li	a1, 8
   1027c: 93 05 20 00  	li	a1, 2
   10280: 73 90 55 01  	csrw	21, a1
   10284: 13 00 00 00  	nop
   10288: 13 00 00 00  	nop
   1028c: 13 00 00 00  	nop
   10290: 13 00 00 00  	nop
   10294: 13 00 00 00  	nop
   10298: 83 25 81 02  	lw	a1, 40(sp)
   1029c: 03 25 45 02  	lw	a0, 36(a0)
   102a0: 63 82 a5 02  	beq	a1, a0, 0x102c4 <main+0x250>
   102a4: 13 05 90 00  	li	a0, 9
   102a8: 13 05 20 00  	li	a0, 2
   102ac: 73 10 55 01  	csrw	21, a0
   102b0: 13 00 00 00  	nop
   102b4: 13 00 00 00  	nop
   102b8: 13 00 00 00  	nop
   102bc: 13 00 00 00  	nop
   102c0: 13 00 00 00  	nop
   102c4: 13 00 10 00  	li	zero, 1
   102c8: 73 10 50 01  	csrw	21, zero
   102cc: 13 00 00 00  	nop
   102d0: 13 00 00 00  	nop
   102d4: 13 00 00 00  	nop
   102d8: 13 00 00 00  	nop
   102dc: 13 00 00 00  	nop
   102e0: 13 05 00 00  	li	a0, 0
   102e4: 83 20 c1 02  	lw	ra, 44(sp)
   102e8: 13 01 01 03  	addi	sp, sp, 48
   102ec: 67 80 00 00  	ret

000102f0 <bin_search_scalar>:
   102f0: 13 01 01 ff  	addi	sp, sp, -16
   102f4: 23 26 81 00  	sw	s0, 12(sp)
   102f8: 23 24 91 00  	sw	s1, 8(sp)
   102fc: 63 5e c0 08  	blez	a2, 0x10398 <bin_search_scalar+0xa8>
   10300: 93 02 00 00  	li	t0, 0
   10304: 13 08 f7 ff  	addi	a6, a4, -1
   10308: 93 08 f0 ff  	li	a7, -1
   1030c: 6f 00 c0 00  	j	0x10318 <bin_search_scalar+0x28>
   10310: 93 82 12 00  	addi	t0, t0, 1
   10314: 63 82 c2 08  	beq	t0, a2, 0x10398 <bin_search_scalar+0xa8>
   10318: 93 97 22 00  	slli	a5, t0, 2
   1031c: 33 84 f5 00  	add	s0, a1, a5
   10320: 83 2e 04 00  	lw	t4, 0(s0)
   10324: 93 03 00 00  	li	t2, 0
   10328: 33 03 f5 00  	add	t1, a0, a5
   1032c: 23 20 13 01  	sw	a7, 0(t1)
   10330: 93 07 07 00  	mv	a5, a4
   10334: 13 0e 08 00  	mv	t3, a6
   10338: 6f 00 c0 01  	j	0x10354 <bin_search_scalar+0x64>
   1033c: 13 8e 04 00  	mv	t3, s1
   10340: b3 27 7e 00  	slt	a5, t3, t2
   10344: 93 c7 17 00  	xori	a5, a5, 1
   10348: b3 f4 ff 00  	and	s1, t6, a5
   1034c: b3 07 7e 00  	add	a5, t3, t2
   10350: e3 80 04 fc  	beqz	s1, 0x10310 <bin_search_scalar+0x20>
   10354: 13 d4 f7 01  	srli	s0, a5, 31
   10358: b3 87 87 00  	add	a5, a5, s0
   1035c: 13 df 17 40  	srai	t5, a5, 1
   10360: 93 17 2f 00  	slli	a5, t5, 2
   10364: b3 87 f6 00  	add	a5, a3, a5
   10368: 83 a7 07 00  	lw	a5, 0(a5)
   1036c: 63 94 fe 00  	bne	t4, a5, 0x10374 <bin_search_scalar+0x84>
   10370: 23 20 e3 01  	sw	t5, 0(t1)
   10374: 63 c6 fe 00  	blt	t4, a5, 0x10380 <bin_search_scalar+0x90>
   10378: 93 04 0e 00  	mv	s1, t3
   1037c: 6f 00 80 00  	j	0x10384 <bin_search_scalar+0x94>
   10380: 93 04 ff ff  	addi	s1, t5, -1
   10384: 33 c4 fe 00  	xor	s0, t4, a5
   10388: b3 3f 80 00  	snez	t6, s0
   1038c: e3 d8 d7 fb  	bge	a5, t4, 0x1033c <bin_search_scalar+0x4c>
   10390: 93 03 1f 00  	addi	t2, t5, 1
   10394: 6f f0 df fa  	j	0x10340 <bin_search_scalar+0x50>
   10398: 03 24 c1 00  	lw	s0, 12(sp)
   1039c: 83 24 81 00  	lw	s1, 8(sp)
   103a0: 13 01 01 01  	addi	sp, sp, 16
   103a4: 67 80 00 00  	ret

000103a8 <memset>:
   103a8: 13 08 f0 00  	li	a6, 15
   103ac: 13 07 05 00  	mv	a4, a0
   103b0: 63 7e c8 02  	bgeu	a6, a2, 0x103ec <memset+0x44>
   103b4: 93 77 f7 00  	andi	a5, a4, 15
   103b8: 63 90 07 0a  	bnez	a5, 0x10458 <memset+0xb0>
   103bc: 63 92 05 08  	bnez	a1, 0x10440 <memset+0x98>
   103c0: 93 76 06 ff  	andi	a3, a2, -16
   103c4: 13 76 f6 00  	andi	a2, a2, 15
   103c8: b3 86 e6 00  	add	a3, a3, a4
   103cc: 23 20 b7 00  	sw	a1, 0(a4)
   103d0: 23 22 b7 00  	sw	a1, 4(a4)
   103d4: 23 24 b7 00  	sw	a1, 8(a4)
   103d8: 23 26 b7 00  	sw	a1, 12(a4)
   103dc: 13 07 07 01  	addi	a4, a4, 16
   103e0: e3 66 d7 fe  	bltu	a4, a3, 0x103cc <memset+0x24>
   103e4: 63 14 06 00  	bnez	a2, 0x103ec <memset+0x44>
   103e8: 67 80 00 00  	ret
   103ec: b3 06 c8 40  	sub	a3, a6, a2
   103f0: 93 96 26 00  	slli	a3, a3, 2
   103f4: 97 02 00 00  	auipc	t0, 0
   103f8: b3 86 56 00  	add	a3, a3, t0
   103fc: 67 80 c6 00  	jr	12(a3)
   10400: 23 07 b7 00  	sb	a1, 14(a4)
   10404: a3 06 b7 00  	sb	a1, 13(a4)
   10408: 23 06 b7 00  	sb	a1, 12(a4)
   1040c: a3 05 b7 00  	sb	a1, 11(a4)
   10410: 23 05 b7 00  	sb	a1, 10(a4)
   10414: a3 04 b7 00  	sb	a1, 9(a4)
   10418: 23 04 b7 00  	sb	a1, 8(a4)
   1041c: a3 03 b7 00  	sb	a1, 7(a4)
   10420: 23 03 b7 00  	sb	a1, 6(a4)
   10424: a3 02 b7 00  	sb	a1, 5(a4)
   10428: 23 02 b7 00  	sb	a1, 4(a4)
   1042c: a3 01 b7 00  	sb	a1, 3(a4)
   10430: 23 01 b7 00  	sb	a1, 2(a4)
   10434: a3 00 b7 00  	sb	a1, 1(a4)
   10438: 23 00 b7 00  	sb	a1, 0(a4)
   1043c: 67 80 00 00  	ret
   10440: 93 f5 f5 0f  	andi	a1, a1, 255
   10444: 93 96 85 00  	slli	a3, a1, 8
   10448: b3 e5 d5 00  	or	a1, a1, a3
   1044c: 93 96 05 01  	slli	a3, a1, 16
   10450: b3 e5 d5 00  	or	a1, a1, a3
   10454: 6f f0 df f6  	j	0x103c0 <memset+0x18>
   10458: 93 96 27 00  	slli	a3, a5, 2
   1045c: 97 02 00 00  	auipc	t0, 0
   10460: b3 86 56 00  	add	a3, a3, t0
   10464: 93 82 00 00  	mv	t0, ra
   10468: e7 80 06 fa  	jalr	-96(a3)
   1046c: 93 80 02 00  	mv	ra, t0
   10470: 93 87 07 ff  	addi	a5, a5, -16
   10474: 33 07 f7 40  	sub	a4, a4, a5
   10478: 33 06 f6 00  	add	a2, a2, a5
   1047c: e3 78 c8 f6  	bgeu	a6, a2, 0x103ec <memset+0x44>
   10480: 6f f0 df f3  	j	0x103bc <memset+0x14>
