
./rvv-tools/../bin/ubmark-vvadd:	file format elf32-littleriscv

Disassembly of section .text:

00010074 <main>:
   10074: 13 01 01 e6  	addi	sp, sp, -416
   10078: 23 2e 11 18  	sw	ra, 412(sp)
   1007c: 23 2c 81 18  	sw	s0, 408(sp)
   10080: 23 2a 91 18  	sw	s1, 404(sp)
   10084: 13 04 41 00  	addi	s0, sp, 4
   10088: 13 05 41 00  	addi	a0, sp, 4
   1008c: 13 06 00 19  	li	a2, 400
   10090: 93 04 00 19  	li	s1, 400
   10094: 93 05 00 00  	li	a1, 0
   10098: ef 00 80 25  	jal	0x102f0 <memset>
   1009c: 13 00 10 00  	li	zero, 1
   100a0: 73 10 a0 00  	csrw	vxrm, zero
   100a4: 13 00 00 00  	nop
   100a8: 13 00 00 00  	nop
   100ac: 13 00 00 00  	nop
   100b0: 13 00 00 00  	nop
   100b4: 13 00 00 00  	nop
   100b8: 37 15 01 00  	lui	a0, 17
   100bc: 13 05 05 00  	mv	a0, a0
   100c0: 57 70 04 c5  	vsetivli	zero, 8, e32, m1, ta, mu
   100c4: 07 64 05 02  	vle32.v	v8, (a0)
   100c8: b7 15 01 00  	lui	a1, 17
   100cc: 93 85 05 1a  	addi	a1, a1, 416
   100d0: 87 e4 05 02  	vle32.v	v9, (a1)
   100d4: 13 06 00 00  	li	a2, 0
   100d8: 57 04 94 02  	vadd.vv	v8, v9, v8
   100dc: 93 06 41 00  	addi	a3, sp, 4
   100e0: 27 e4 06 02  	vse32.v	v8, (a3)
   100e4: 93 06 41 02  	addi	a3, sp, 36
   100e8: 13 07 05 02  	addi	a4, a0, 32
   100ec: 07 64 07 02  	vle32.v	v8, (a4)
   100f0: 13 87 05 02  	addi	a4, a1, 32
   100f4: 87 64 07 02  	vle32.v	v9, (a4)
   100f8: 13 07 05 04  	addi	a4, a0, 64
   100fc: 07 65 07 02  	vle32.v	v10, (a4)
   10100: 13 87 05 04  	addi	a4, a1, 64
   10104: 87 65 07 02  	vle32.v	v11, (a4)
   10108: 57 04 94 02  	vadd.vv	v8, v9, v8
   1010c: 27 e4 06 02  	vse32.v	v8, (a3)
   10110: 93 06 41 04  	addi	a3, sp, 68
   10114: 57 04 b5 02  	vadd.vv	v8, v11, v10
   10118: 27 e4 06 02  	vse32.v	v8, (a3)
   1011c: 93 06 41 06  	addi	a3, sp, 100
   10120: 13 07 05 06  	addi	a4, a0, 96
   10124: 07 64 07 02  	vle32.v	v8, (a4)
   10128: 13 87 05 06  	addi	a4, a1, 96
   1012c: 87 64 07 02  	vle32.v	v9, (a4)
   10130: 13 07 05 08  	addi	a4, a0, 128
   10134: 07 65 07 02  	vle32.v	v10, (a4)
   10138: 13 87 05 08  	addi	a4, a1, 128
   1013c: 87 65 07 02  	vle32.v	v11, (a4)
   10140: 57 04 94 02  	vadd.vv	v8, v9, v8
   10144: 27 e4 06 02  	vse32.v	v8, (a3)
   10148: 93 06 41 08  	addi	a3, sp, 132
   1014c: 57 04 b5 02  	vadd.vv	v8, v11, v10
   10150: 27 e4 06 02  	vse32.v	v8, (a3)
   10154: 93 06 41 0a  	addi	a3, sp, 164
   10158: 13 07 05 0a  	addi	a4, a0, 160
   1015c: 07 64 07 02  	vle32.v	v8, (a4)
   10160: 13 87 05 0a  	addi	a4, a1, 160
   10164: 87 64 07 02  	vle32.v	v9, (a4)
   10168: 13 07 05 0c  	addi	a4, a0, 192
   1016c: 07 65 07 02  	vle32.v	v10, (a4)
   10170: 13 87 05 0c  	addi	a4, a1, 192
   10174: 87 65 07 02  	vle32.v	v11, (a4)
   10178: 57 04 94 02  	vadd.vv	v8, v9, v8
   1017c: 27 e4 06 02  	vse32.v	v8, (a3)
   10180: 93 06 41 0c  	addi	a3, sp, 196
   10184: 57 04 b5 02  	vadd.vv	v8, v11, v10
   10188: 27 e4 06 02  	vse32.v	v8, (a3)
   1018c: 93 06 41 0e  	addi	a3, sp, 228
   10190: 13 07 05 0e  	addi	a4, a0, 224
   10194: 07 64 07 02  	vle32.v	v8, (a4)
   10198: 13 87 05 0e  	addi	a4, a1, 224
   1019c: 87 64 07 02  	vle32.v	v9, (a4)
   101a0: 13 07 05 10  	addi	a4, a0, 256
   101a4: 07 65 07 02  	vle32.v	v10, (a4)
   101a8: 13 87 05 10  	addi	a4, a1, 256
   101ac: 87 65 07 02  	vle32.v	v11, (a4)
   101b0: 57 04 94 02  	vadd.vv	v8, v9, v8
   101b4: 27 e4 06 02  	vse32.v	v8, (a3)
   101b8: 93 06 41 10  	addi	a3, sp, 260
   101bc: 57 04 b5 02  	vadd.vv	v8, v11, v10
   101c0: 27 e4 06 02  	vse32.v	v8, (a3)
   101c4: 93 06 05 12  	addi	a3, a0, 288
   101c8: 07 e4 06 02  	vle32.v	v8, (a3)
   101cc: 93 86 05 12  	addi	a3, a1, 288
   101d0: 87 e4 06 02  	vle32.v	v9, (a3)
   101d4: 93 06 05 14  	addi	a3, a0, 320
   101d8: 07 e5 06 02  	vle32.v	v10, (a3)
   101dc: 93 86 05 14  	addi	a3, a1, 320
   101e0: 87 e5 06 02  	vle32.v	v11, (a3)
   101e4: 57 04 94 02  	vadd.vv	v8, v9, v8
   101e8: 93 06 41 12  	addi	a3, sp, 292
   101ec: 27 e4 06 02  	vse32.v	v8, (a3)
   101f0: 57 04 b5 02  	vadd.vv	v8, v11, v10
   101f4: 93 06 05 16  	addi	a3, a0, 352
   101f8: 87 e4 06 02  	vle32.v	v9, (a3)
   101fc: 93 86 05 16  	addi	a3, a1, 352
   10200: 07 e5 06 02  	vle32.v	v10, (a3)
   10204: 93 06 41 14  	addi	a3, sp, 324
   10208: 27 e4 06 02  	vse32.v	v8, (a3)
   1020c: 13 08 41 16  	addi	a6, sp, 356
   10210: 57 84 a4 02  	vadd.vv	v8, v10, v9
   10214: 03 27 05 18  	lw	a4, 384(a0)
   10218: 83 a7 05 18  	lw	a5, 384(a1)
   1021c: 83 28 45 18  	lw	a7, 388(a0)
   10220: 83 a6 45 18  	lw	a3, 388(a1)
   10224: 27 64 08 02  	vse32.v	v8, (a6)
   10228: 33 87 e7 00  	add	a4, a5, a4
   1022c: 23 22 e1 18  	sw	a4, 388(sp)
   10230: b3 86 16 01  	add	a3, a3, a7
   10234: 03 27 85 18  	lw	a4, 392(a0)
   10238: 83 a7 85 18  	lw	a5, 392(a1)
   1023c: 03 25 c5 18  	lw	a0, 396(a0)
   10240: 83 a5 c5 18  	lw	a1, 396(a1)
   10244: 23 24 d1 18  	sw	a3, 392(sp)
   10248: b3 86 e7 00  	add	a3, a5, a4
   1024c: 23 26 d1 18  	sw	a3, 396(sp)
   10250: 33 85 a5 00  	add	a0, a1, a0
   10254: 23 28 a1 18  	sw	a0, 400(sp)
   10258: 13 00 00 00  	nop
   1025c: 73 10 a0 00  	csrw	vxrm, zero
   10260: 13 00 00 00  	nop
   10264: 13 00 00 00  	nop
   10268: 13 00 00 00  	nop
   1026c: 13 00 00 00  	nop
   10270: 13 00 00 00  	nop
   10274: 37 15 01 00  	lui	a0, 17
   10278: 13 05 05 33  	addi	a0, a0, 816
   1027c: 6f 00 c0 00  	j	0x10288 <main+0x214>
   10280: 13 06 46 00  	addi	a2, a2, 4
   10284: 63 0c 96 02  	beq	a2, s1, 0x102bc <main+0x248>
   10288: b3 05 c4 00  	add	a1, s0, a2
   1028c: 83 a5 05 00  	lw	a1, 0(a1)
   10290: b3 06 a6 00  	add	a3, a2, a0
   10294: 83 a6 06 00  	lw	a3, 0(a3)
   10298: e3 84 d5 fe  	beq	a1, a3, 0x10280 <main+0x20c>
   1029c: 13 00 20 00  	li	zero, 2
   102a0: 73 10 50 01  	csrw	21, zero
   102a4: 13 00 00 00  	nop
   102a8: 13 00 00 00  	nop
   102ac: 13 00 00 00  	nop
   102b0: 13 00 00 00  	nop
   102b4: 13 00 00 00  	nop
   102b8: 6f f0 9f fc  	j	0x10280 <main+0x20c>
   102bc: 13 00 10 00  	li	zero, 1
   102c0: 73 10 50 01  	csrw	21, zero
   102c4: 13 00 00 00  	nop
   102c8: 13 00 00 00  	nop
   102cc: 13 00 00 00  	nop
   102d0: 13 00 00 00  	nop
   102d4: 13 00 00 00  	nop
   102d8: 13 05 00 00  	li	a0, 0
   102dc: 83 20 c1 19  	lw	ra, 412(sp)
   102e0: 03 24 81 19  	lw	s0, 408(sp)
   102e4: 83 24 41 19  	lw	s1, 404(sp)
   102e8: 13 01 01 1a  	addi	sp, sp, 416
   102ec: 67 80 00 00  	ret

000102f0 <memset>:
   102f0: 13 08 f0 00  	li	a6, 15
   102f4: 13 07 05 00  	mv	a4, a0
   102f8: 63 7e c8 02  	bgeu	a6, a2, 0x10334 <memset+0x44>
   102fc: 93 77 f7 00  	andi	a5, a4, 15
   10300: 63 90 07 0a  	bnez	a5, 0x103a0 <memset+0xb0>
   10304: 63 92 05 08  	bnez	a1, 0x10388 <memset+0x98>
   10308: 93 76 06 ff  	andi	a3, a2, -16
   1030c: 13 76 f6 00  	andi	a2, a2, 15
   10310: b3 86 e6 00  	add	a3, a3, a4
   10314: 23 20 b7 00  	sw	a1, 0(a4)
   10318: 23 22 b7 00  	sw	a1, 4(a4)
   1031c: 23 24 b7 00  	sw	a1, 8(a4)
   10320: 23 26 b7 00  	sw	a1, 12(a4)
   10324: 13 07 07 01  	addi	a4, a4, 16
   10328: e3 66 d7 fe  	bltu	a4, a3, 0x10314 <memset+0x24>
   1032c: 63 14 06 00  	bnez	a2, 0x10334 <memset+0x44>
   10330: 67 80 00 00  	ret
   10334: b3 06 c8 40  	sub	a3, a6, a2
   10338: 93 96 26 00  	slli	a3, a3, 2
   1033c: 97 02 00 00  	auipc	t0, 0
   10340: b3 86 56 00  	add	a3, a3, t0
   10344: 67 80 c6 00  	jr	12(a3)
   10348: 23 07 b7 00  	sb	a1, 14(a4)
   1034c: a3 06 b7 00  	sb	a1, 13(a4)
   10350: 23 06 b7 00  	sb	a1, 12(a4)
   10354: a3 05 b7 00  	sb	a1, 11(a4)
   10358: 23 05 b7 00  	sb	a1, 10(a4)
   1035c: a3 04 b7 00  	sb	a1, 9(a4)
   10360: 23 04 b7 00  	sb	a1, 8(a4)
   10364: a3 03 b7 00  	sb	a1, 7(a4)
   10368: 23 03 b7 00  	sb	a1, 6(a4)
   1036c: a3 02 b7 00  	sb	a1, 5(a4)
   10370: 23 02 b7 00  	sb	a1, 4(a4)
   10374: a3 01 b7 00  	sb	a1, 3(a4)
   10378: 23 01 b7 00  	sb	a1, 2(a4)
   1037c: a3 00 b7 00  	sb	a1, 1(a4)
   10380: 23 00 b7 00  	sb	a1, 0(a4)
   10384: 67 80 00 00  	ret
   10388: 93 f5 f5 0f  	andi	a1, a1, 255
   1038c: 93 96 85 00  	slli	a3, a1, 8
   10390: b3 e5 d5 00  	or	a1, a1, a3
   10394: 93 96 05 01  	slli	a3, a1, 16
   10398: b3 e5 d5 00  	or	a1, a1, a3
   1039c: 6f f0 df f6  	j	0x10308 <memset+0x18>
   103a0: 93 96 27 00  	slli	a3, a5, 2
   103a4: 97 02 00 00  	auipc	t0, 0
   103a8: b3 86 56 00  	add	a3, a3, t0
   103ac: 93 82 00 00  	mv	t0, ra
   103b0: e7 80 06 fa  	jalr	-96(a3)
   103b4: 93 80 02 00  	mv	ra, t0
   103b8: 93 87 07 ff  	addi	a5, a5, -16
   103bc: 33 07 f7 40  	sub	a4, a4, a5
   103c0: 33 06 f6 00  	add	a2, a2, a5
   103c4: e3 78 c8 f6  	bgeu	a6, a2, 0x10334 <memset+0x44>
   103c8: 6f f0 df f3  	j	0x10304 <memset+0x14>
